Certificate:
    Data:
        Version: 3 (0x2)
        Serial Number: 2 (0x2)
    Signature Algorithm: sha256WithRSAEncryption
        Issuer: C=cn, ST=fujian, L=fuzhou, O=ca, OU=caCert, CN=ca.com/emailAddress=ca@qq.com
        Validity
            Not Before: Aug 12 06:00:30 2020 GMT
            Not After : Aug 10 06:00:30 2030 GMT
        Subject: C=cn, ST=fujian, O=ca, OU=caCert, CN=ca.com/emailAddress=ca@qq.com
        Subject Public Key Info:
            Public Key Algorithm: rsaEncryption
                Public-Key: (2048 bit)
                Modulus:
                    00:c3:28:b4:2c:07:aa:1b:98:93:64:f0:31:99:d1:
                    57:37:77:7f:25:96:6a:eb:86:2e:a6:ab:2d:88:09:
                    ce:70:b4:dc:d0:9e:52:24:e2:93:40:44:91:74:f1:
                    ef:44:e6:7c:cb:86:cd:91:49:8a:dd:45:f3:44:27:
                    9f:44:f7:67:ba:eb:8d:6f:3a:82:77:f5:36:f1:c0:
                    d2:bd:f2:57:e9:90:7f:ac:55:fb:3f:41:8b:31:8d:
                    8c:5f:68:40:3a:00:4e:19:82:b2:56:0d:97:03:61:
                    2b:03:15:44:0c:ab:6b:e4:21:8d:14:a2:59:c4:10:
                    d4:fc:8f:f4:0c:c2:48:32:2c:c9:81:2e:a2:75:61:
                    56:0a:64:fa:75:73:05:4a:e9:8a:6a:4e:3e:8f:d6:
                    cd:5d:f9:74:ad:68:52:ff:cc:3a:b7:52:9c:b2:57:
                    b0:fa:e6:3f:94:ea:16:c6:8f:e6:9f:59:1a:23:2f:
                    5d:63:c6:06:83:55:35:79:ae:73:74:ec:bf:36:bc:
                    8f:94:11:11:34:c9:25:7e:40:1c:77:eb:aa:9f:73:
                    42:e9:ab:73:c9:f7:55:e6:ed:5d:ad:38:7c:2b:c3:
                    7a:86:a8:36:ea:98:1a:11:48:34:06:9b:99:0e:07:
                    b3:aa:8a:e8:cc:29:5f:10:64:78:1c:51:04:6c:8e:
                    53:fb
                Exponent: 65537 (0x10001)
        X509v3 extensions:
            X509v3 Basic Constraints: 
                CA:FALSE
            Netscape Comment: 
                OpenSSL Generated Certificate
            X509v3 Subject Key Identifier: 
                13:9E:A6:88:E4:72:72:FC:FE:D2:96:24:B5:6F:E3:E0:AC:77:1C:07
            X509v3 Authority Key Identifier: 
                keyid:13:9E:A6:88:E4:72:72:FC:FE:D2:96:24:B5:6F:E3:E0:AC:77:1C:07

    Signature Algorithm: sha256WithRSAEncryption
         34:4b:55:e0:01:23:b8:b9:a6:59:98:ca:fa:7a:13:cf:c1:88:
         ad:b0:a4:d9:e3:98:be:ee:c4:b9:c5:ee:5b:21:cd:a0:ae:db:
         c2:1c:c1:66:cd:8b:81:96:ef:ca:a1:6b:d0:ea:11:b4:9c:9c:
         d4:b1:cb:54:e4:4d:62:fb:76:85:c0:09:49:c3:98:e3:3a:96:
         f2:26:bf:71:7c:df:ea:bf:4d:84:8a:34:e1:1a:0c:89:f1:97:
         ea:a6:e7:10:f5:fb:e3:81:81:47:ed:c5:49:57:59:14:3b:be:
         68:a0:19:46:b5:94:c7:c2:f0:eb:47:77:ef:12:3a:16:d7:f2:
         84:53:0d:3f:48:99:14:7b:75:b8:eb:29:26:64:3e:75:87:5f:
         7a:8c:1f:b9:0e:42:da:4c:9a:df:ed:d5:ae:19:49:d4:a6:d7:
         5f:e8:91:e7:d2:69:54:2e:66:dd:a4:d7:53:b9:7c:7a:ec:2a:
         17:a3:67:7e:39:3f:5c:d5:32:d9:63:ce:f2:f3:76:a1:41:7f:
         ab:63:ab:3a:1c:bf:b3:9d:65:88:51:26:79:7c:8e:ea:0f:18:
         e3:47:11:62:9b:ea:97:c6:c6:af:96:f9:0c:39:ce:19:fe:2e:
         b1:1d:2c:f4:2e:f9:86:5d:06:cc:96:fc:93:58:37:d4:c4:aa:
         d6:39:28:c8
-----BEGIN CERTIFICATE-----
MIID1TCCAr2gAwIBAgIBAjANBgkqhkiG9w0BAQsFADB4MQswCQYDVQQGEwJjbjEP
MA0GA1UECAwGZnVqaWFuMQ8wDQYDVQQHDAZmdXpob3UxCzAJBgNVBAoMAmNhMQ8w
DQYDVQQLDAZjYUNlcnQxDzANBgNVBAMMBmNhLmNvbTEYMBYGCSqGSIb3DQEJARYJ
Y2FAcXEuY29tMB4XDTIwMDgxMjA2MDAzMFoXDTMwMDgxMDA2MDAzMFowZzELMAkG
A1UEBhMCY24xDzANBgNVBAgMBmZ1amlhbjELMAkGA1UECgwCY2ExDzANBgNVBAsM
BmNhQ2VydDEPMA0GA1UEAwwGY2EuY29tMRgwFgYJKoZIhvcNAQkBFgljYUBxcS5j
b20wggEiMA0GCSqGSIb3DQEBAQUAA4IBDwAwggEKAoIBAQDDKLQsB6obmJNk8DGZ
0Vc3d38llmrrhi6mqy2ICc5wtNzQnlIk4pNARJF08e9E5nzLhs2RSYrdRfNEJ59E
92e6641vOoJ39TbxwNK98lfpkH+sVfs/QYsxjYxfaEA6AE4ZgrJWDZcDYSsDFUQM
q2vkIY0UolnEENT8j/QMwkgyLMmBLqJ1YVYKZPp1cwVK6YpqTj6P1s1d+XStaFL/
zDq3UpyyV7D65j+U6hbGj+afWRojL11jxgaDVTV5rnN07L82vI+UERE0ySV+QBx3
66qfc0Lpq3PJ91Xm7V2tOHwrw3qGqDbqmBoRSDQGm5kOB7OqiujMKV8QZHgcUQRs
jlP7AgMBAAGjezB5MAkGA1UdEwQCMAAwLAYJYIZIAYb4QgENBB8WHU9wZW5TU0wg
R2VuZXJhdGVkIENlcnRpZmljYXRlMB0GA1UdDgQWBBQTnqaI5HJy/P7SliS1b+Pg
rHccBzAfBgNVHSMEGDAWgBQTnqaI5HJy/P7SliS1b+PgrHccBzANBgkqhkiG9w0B
AQsFAAOCAQEANEtV4AEjuLmmWZjK+noTz8GIrbCk2eOYvu7EucXuWyHNoK7bwhzB
Zs2LgZbvyqFr0OoRtJyc1LHLVORNYvt2hcAJScOY4zqW8ia/cXzf6r9NhIo04RoM
ifGX6qbnEPX744GBR+3FSVdZFDu+aKAZRrWUx8Lw60d37xI6FtfyhFMNP0iZFHt1
uOspJmQ+dYdfeowfuQ5C2kya3+3VrhlJ1KbXX+iR59JpVC5m3aTXU7l8euwqF6Nn
fjk/XNUy2WPO8vN2oUF/q2OrOhy/s51liFEmeXyO6g8Y40cRYpvql8bGr5b5DDnO
Gf4usR0s9C75hl0GzJb8k1g31MSq1jkoyA==
-----END CERTIFICATE-----
