Certificate:
    Data:
        Version: 3 (0x2)
        Serial Number: 3 (0x3)
    Signature Algorithm: sha256WithRSAEncryption
        Issuer: C=cn, ST=fujian, L=fuzhou, O=ca, OU=caCert, CN=ca.com/emailAddress=ca@qq.com
        Validity
            Not Before: Aug 12 06:23:45 2020 GMT
            Not After : Aug 10 06:23:45 2030 GMT
        Subject: C=cn, ST=fujian, O=ca, OU=unit, CN=unit.com/emailAddress=unit@qq.com
        Subject Public Key Info:
            Public Key Algorithm: rsaEncryption
                Public-Key: (2048 bit)
                Modulus:
                    00:c2:6b:d4:7d:aa:18:4d:0e:6a:1f:91:c5:e4:b6:
                    d0:a3:05:c8:f4:d3:84:4e:62:28:93:a3:16:a6:bf:
                    c2:71:e1:73:b6:2e:25:07:bf:9a:b9:e9:bb:19:0d:
                    04:d6:e7:70:06:14:5c:e2:7a:62:fa:1f:a8:a0:a6:
                    57:6c:b2:6c:23:d7:6a:7f:a4:96:b4:26:19:af:5f:
                    e3:ea:99:f9:ce:ef:aa:19:2d:e8:97:6d:b7:6f:c2:
                    96:37:45:1b:ca:2c:b9:ed:92:83:28:f5:04:8c:d7:
                    c7:8d:d4:8b:90:3c:1f:4c:66:dc:b6:8e:10:c0:cd:
                    85:c7:e7:99:26:9b:25:9e:8a:c9:dc:ef:0c:81:0f:
                    63:94:08:b6:21:8e:3f:f1:b4:0f:ed:67:79:61:74:
                    97:df:f5:27:51:86:f3:7c:9b:f7:20:b9:84:a4:8b:
                    e7:ab:ab:b2:f2:6e:7f:33:59:fc:57:3f:0a:79:01:
                    28:db:97:ee:f7:5f:79:d8:d2:fc:33:ae:9d:be:99:
                    10:00:c8:76:6c:13:b4:60:a2:b9:b4:54:72:d7:7e:
                    83:0e:e8:ca:50:e0:d2:1a:cf:78:5c:40:61:6d:0d:
                    50:b7:8c:69:2d:80:a7:95:d9:c3:92:fd:eb:08:1d:
                    66:c1:00:1c:79:3c:83:70:e6:4b:83:c7:40:cd:7b:
                    09:43
                Exponent: 65537 (0x10001)
        X509v3 extensions:
            X509v3 Basic Constraints: 
                CA:FALSE
            Netscape Comment: 
                OpenSSL Generated Certificate
            X509v3 Subject Key Identifier: 
                3F:0C:1F:AA:FE:B9:A6:9B:08:04:B8:B4:A6:50:C7:4E:7F:84:0A:34
            X509v3 Authority Key Identifier: 
                keyid:13:9E:A6:88:E4:72:72:FC:FE:D2:96:24:B5:6F:E3:E0:AC:77:1C:07

    Signature Algorithm: sha256WithRSAEncryption
         77:1a:48:b8:e8:6a:e9:d7:5b:18:58:8e:f8:29:fc:b4:f9:1c:
         38:5e:93:fe:04:f7:dc:c7:f1:f7:3c:d9:76:4c:8c:ff:da:c2:
         fc:d4:be:93:e8:b9:c9:45:9a:90:21:cd:8e:02:86:8d:3e:b5:
         06:09:b5:32:ee:40:69:c3:87:4d:79:66:ee:c2:1c:98:0a:6e:
         5e:a6:1c:b3:d2:6b:f2:a9:e3:ee:21:90:4c:76:a2:44:1e:5e:
         7f:01:18:f0:aa:84:51:08:68:43:c0:95:21:97:74:82:96:86:
         70:4e:cd:9e:06:7f:76:8f:ae:ee:90:a6:3f:54:fa:e3:c7:41:
         3b:89:5e:12:4a:d4:a6:a4:fb:92:06:5f:79:0d:d3:ba:63:60:
         7f:f9:e1:c9:8e:20:e1:02:95:83:20:97:96:12:b8:86:1e:93:
         b0:3f:76:d6:f2:22:22:b5:b0:3e:e6:28:c9:fc:bb:10:f3:1e:
         3d:42:f0:7c:56:79:81:6e:10:f0:5c:69:00:75:a4:93:24:49:
         df:84:df:8e:04:52:04:ed:08:1c:ee:b1:86:7f:39:b2:d0:8e:
         1b:2b:26:eb:c8:20:b5:ae:e6:59:60:dc:cc:6a:3c:55:fe:2f:
         ac:10:8e:22:d9:14:14:b2:8f:39:14:e0:5d:7e:ef:f7:10:77:
         9d:73:55:9b
-----BEGIN CERTIFICATE-----
MIID1zCCAr+gAwIBAgIBAzANBgkqhkiG9w0BAQsFADB4MQswCQYDVQQGEwJjbjEP
MA0GA1UECAwGZnVqaWFuMQ8wDQYDVQQHDAZmdXpob3UxCzAJBgNVBAoMAmNhMQ8w
DQYDVQQLDAZjYUNlcnQxDzANBgNVBAMMBmNhLmNvbTEYMBYGCSqGSIb3DQEJARYJ
Y2FAcXEuY29tMB4XDTIwMDgxMjA2MjM0NVoXDTMwMDgxMDA2MjM0NVowaTELMAkG
A1UEBhMCY24xDzANBgNVBAgMBmZ1amlhbjELMAkGA1UECgwCY2ExDTALBgNVBAsM
BHVuaXQxETAPBgNVBAMMCHVuaXQuY29tMRowGAYJKoZIhvcNAQkBFgt1bml0QHFx
LmNvbTCCASIwDQYJKoZIhvcNAQEBBQADggEPADCCAQoCggEBAMJr1H2qGE0Oah+R
xeS20KMFyPTThE5iKJOjFqa/wnHhc7YuJQe/mrnpuxkNBNbncAYUXOJ6YvofqKCm
V2yybCPXan+klrQmGa9f4+qZ+c7vqhkt6Jdtt2/CljdFG8osue2Sgyj1BIzXx43U
i5A8H0xm3LaOEMDNhcfnmSabJZ6KydzvDIEPY5QItiGOP/G0D+1neWF0l9/1J1GG
83yb9yC5hKSL56ursvJufzNZ/Fc/CnkBKNuX7vdfedjS/DOunb6ZEADIdmwTtGCi
ubRUctd+gw7oylDg0hrPeFxAYW0NULeMaS2Ap5XZw5L96wgdZsEAHHk8g3DmS4PH
QM17CUMCAwEAAaN7MHkwCQYDVR0TBAIwADAsBglghkgBhvhCAQ0EHxYdT3BlblNT
TCBHZW5lcmF0ZWQgQ2VydGlmaWNhdGUwHQYDVR0OBBYEFD8MH6r+uaabCAS4tKZQ
x05/hAo0MB8GA1UdIwQYMBaAFBOepojkcnL8/tKWJLVv4+CsdxwHMA0GCSqGSIb3
DQEBCwUAA4IBAQB3Gki46Grp11sYWI74Kfy0+Rw4XpP+BPfcx/H3PNl2TIz/2sL8
1L6T6LnJRZqQIc2OAoaNPrUGCbUy7kBpw4dNeWbuwhyYCm5ephyz0mvyqePuIZBM
dqJEHl5/ARjwqoRRCGhDwJUhl3SCloZwTs2eBn92j67ukKY/VPrjx0E7iV4SStSm
pPuSBl95DdO6Y2B/+eHJjiDhApWDIJeWEriGHpOwP3bW8iIitbA+5ijJ/LsQ8x49
QvB8VnmBbhDwXGkAdaSTJEnfhN+OBFIE7Qgc7rGGfzmy0I4bKybryCC1ruZZYNzM
ajxV/i+sEI4i2RQUso85FOBdfu/3EHedc1Wb
-----END CERTIFICATE-----
